; Function Attrs: mustprogress nounwind uwtable
define hidden noundef ptr @_ZN7nmethod35continuation_for_implicit_exceptionEPhb(ptr noundef nonnull align 8 dereferenceable(214) %0, ptr noundef %1, i1 noundef zeroext %2) local_unnamed_addr #0 align 2 {
  %4 = alloca %class.ImplicitExceptionTable, align 8
  %5 = getelementptr inbounds i8, ptr %0, i64 36
  %6 = load i32, ptr %5, align 4
  %7 = sext i32 %6 to i64
  %8 = getelementptr inbounds i8, ptr %0, i64 %7
  %9 = ptrtoint ptr %1 to i64
  %10 = ptrtoint ptr %8 to i64
  %11 = sub i64 %9, %10
  %12 = trunc i64 %11 to i32
  call void @_ZN22ImplicitExceptionTableC1EPK7nmethod(ptr noundef nonnull align 8 dereferenceable(17) %4, ptr noundef nonnull %0) #23
  %13 = call noundef i32 @_ZNK22ImplicitExceptionTable19continuation_offsetEj(ptr noundef nonnull align 8 dereferenceable(17) %4, i32 noundef %12) #23
  %14 = icmp eq i32 %13, 0
  br i1 %14, label %38, label %15

15:                                               ; preds = %3
  %16 = icmp eq i32 %13, %12
  br i1 %16, label %17, label %32

17:                                               ; preds = %15
  %18 = call align 8 ptr @llvm.threadlocal.address.p0(ptr align 8 @_ZN6Thread12_thr_currentE)
  %19 = load ptr, ptr %18, align 8
  %20 = getelementptr inbounds i8, ptr %19, i64 1168
  store ptr %1, ptr %20, align 8
  %21 = select i1 %2, i32 -123, i32 -11
  %22 = getelementptr inbounds i8, ptr %19, i64 1152
  store i32 %21, ptr %22, align 8
  %23 = load ptr, ptr @_ZN13SharedRuntime11_deopt_blobE, align 8
  %24 = getelementptr inbounds i8, ptr %23, i64 36
  %25 = load i32, ptr %24, align 4
  %26 = sext i32 %25 to i64
  %27 = getelementptr inbounds i8, ptr %23, i64 %26
  %28 = getelementptr inbounds i8, ptr %23, i64 76
  %29 = load i32, ptr %28, align 4
  %30 = sext i32 %29 to i64
  %31 = getelementptr inbounds i8, ptr %27, i64 %30
  br label %38

32:                                               ; preds = %15
  %33 = load i32, ptr %5, align 4
  %34 = sext i32 %33 to i64
  %35 = getelementptr inbounds i8, ptr %0, i64 %34
  %36 = sext i32 %13 to i64
  %37 = getelementptr inbounds i8, ptr %35, i64 %36
  br label %38

38:                                               ; preds = %3, %32, %17
  %.0 = phi ptr [ %31, %17 ], [ %37, %32 ], [ null, %3 ]
  ret ptr %.0
}